; Function Attrs: mustprogress nofree norecurse nosync nounwind memory(readwrite, inaccessiblemem: none) uwtable
define hidden noundef zeroext i1 @_ZN14pdatatype_decl16fix_missing_refsERK3mapI6symboli16symbol_hash_proc14symbol_eq_procERS1_(ptr nocapture noundef nonnull readonly align 8 dereferenceable(64) %this, ptr nocapture noundef nonnull readonly align 8 dereferenceable(24) %symbol2idx, ptr nocapture noundef nonnull writeonly align 8 dereferenceable(8) %missing) local_unnamed_addr #10 align 2 {
entry:
  %m_constructors = getelementptr inbounds i8, ptr %this, i64 48
  %0 = load ptr, ptr %m_constructors, align 8
  %cmp.i.i = icmp eq ptr %0, null
  br i1 %cmp.i.i, label %return, label %_ZN6vectorIP17pconstructor_declLb0EjE3endEv.exit

_ZN6vectorIP17pconstructor_declLb0EjE3endEv.exit: ; preds = %entry
  %arrayidx.i.i = getelementptr inbounds i8, ptr %0, i64 -4
  %1 = load i32, ptr %arrayidx.i.i, align 4
  %2 = zext i32 %1 to i64
  %add.ptr.i = getelementptr inbounds ptr, ptr %0, i64 %2
  %cmp.not4 = icmp eq i32 %1, 0
  br i1 %cmp.not4, label %return, label %for.body

for.body:                                         ; preds = %_ZN6vectorIP17pconstructor_declLb0EjE3endEv.exit, %for.body
  %__begin1.05 = phi ptr [ %incdec.ptr, %for.body ], [ %0, %_ZN6vectorIP17pconstructor_declLb0EjE3endEv.exit ]
  %3 = load ptr, ptr %__begin1.05, align 8
  %call3 = tail call noundef zeroext i1 @_ZN17pconstructor_decl16fix_missing_refsERK3mapI6symboli16symbol_hash_proc14symbol_eq_procERS1_(ptr noundef nonnull align 8 dereferenceable(48) %3, ptr noundef nonnull align 8 dereferenceable(24) %symbol2idx, ptr noundef nonnull align 8 dereferenceable(8) %missing)
  %incdec.ptr = getelementptr inbounds i8, ptr %__begin1.05, i64 8
  %cmp.not = icmp ne ptr %incdec.ptr, %add.ptr.i
  %or.cond.not = select i1 %call3, i1 %cmp.not, i1 false
  br i1 %or.cond.not, label %for.body, label %return

return:                                           ; preds = %for.body, %entry, %_ZN6vectorIP17pconstructor_declLb0EjE3endEv.exit
  %cmp.not.lcssa = phi i1 [ true, %_ZN6vectorIP17pconstructor_declLb0EjE3endEv.exit ], [ true, %entry ], [ %call3, %for.body ]
  ret i1 %cmp.not.lcssa
}